target datalayout = "e-m:e-p270:32:32-p271:32:32-p272:64:64-i64:64-i128:128-f80:128-n8:16:32:64-S128"
target triple = "x86_64-pc-linux-gnu"

%struct.z_stream_s = type { ptr, i32, i64, ptr, i32, i64, ptr, ptr, ptr, ptr, ptr, i32, i64, i64 }
%struct.internal_state = type { ptr, i32, ptr, i64, ptr, i64, i32, ptr, i64, i8, i32, i32, i32, i32, ptr, i64, ptr, ptr, i32, i32, i32, i32, i32, i64, i32, i32, i32, i32, i32, i32, i32, i32, i32, i32, i32, i32, i32, [573 x %struct.ct_data_s], [61 x %struct.ct_data_s], [39 x %struct.ct_data_s], %struct.tree_desc_s, %struct.tree_desc_s, %struct.tree_desc_s, [16 x i16], [573 x i32], i32, i32, [573 x i8], ptr, i32, i32, i32, i64, i64, i32, i32, i16, i32, i64 }
%struct.ct_data_s = type { %union.anon, %union.anon.0 }
%union.anon = type { i16 }
%union.anon.0 = type { i16 }
%struct.tree_desc_s = type { ptr, i32, ptr }

; Function Attrs: nounwind uwtable
define internal i32 @deflateStateCheck(ptr noundef %0) #0 {
  %2 = alloca i32, align 4
  %3 = alloca ptr, align 8
  %4 = alloca ptr, align 8
  %5 = alloca i32, align 4
  store ptr %0, ptr %3, align 8, !tbaa !4
  call void @llvm.lifetime.start.p0(i64 8, ptr %4) #5
  %6 = load ptr, ptr %3, align 8, !tbaa !4
  %7 = icmp eq ptr %6, null
  br i1 %7, label %18, label %8

8:                                                ; preds = %1
  %9 = load ptr, ptr %3, align 8, !tbaa !4
  %10 = getelementptr inbounds nuw %struct.z_stream_s, ptr %9, i32 0, i32 8
  %11 = load ptr, ptr %10, align 8, !tbaa !18
  %12 = icmp eq ptr %11, null
  br i1 %12, label %18, label %13

13:                                               ; preds = %8
  %14 = load ptr, ptr %3, align 8, !tbaa !4
  %15 = getelementptr inbounds nuw %struct.z_stream_s, ptr %14, i32 0, i32 9
  %16 = load ptr, ptr %15, align 8, !tbaa !20
  %17 = icmp eq ptr %16, null
  br i1 %17, label %18, label %19

18:                                               ; preds = %13, %8, %1
  store i32 1, ptr %2, align 4
  store i32 1, ptr %5, align 4
  br label %73

19:                                               ; preds = %13
  %20 = load ptr, ptr %3, align 8, !tbaa !4
  %21 = getelementptr inbounds nuw %struct.z_stream_s, ptr %20, i32 0, i32 7
  %22 = load ptr, ptr %21, align 8, !tbaa !22
  store ptr %22, ptr %4, align 8, !tbaa !21
  %23 = load ptr, ptr %4, align 8, !tbaa !21
  %24 = icmp eq ptr %23, null
  br i1 %24, label %71, label %25

25:                                               ; preds = %19
  %26 = load ptr, ptr %4, align 8, !tbaa !21
  %27 = getelementptr inbounds nuw %struct.internal_state, ptr %26, i32 0, i32 0
  %28 = load ptr, ptr %27, align 8, !tbaa !23
  %29 = load ptr, ptr %3, align 8, !tbaa !4
  %30 = icmp ne ptr %28, %29
  br i1 %30, label %71, label %31

31:                                               ; preds = %25
  %32 = load ptr, ptr %4, align 8, !tbaa !21
  %33 = getelementptr inbounds nuw %struct.internal_state, ptr %32, i32 0, i32 1
  %34 = load i32, ptr %33, align 8, !tbaa !31
  %35 = icmp ne i32 %34, 42
  br i1 %35, label %36, label %72

36:                                               ; preds = %31
  %37 = load ptr, ptr %4, align 8, !tbaa !21
  %38 = getelementptr inbounds nuw %struct.internal_state, ptr %37, i32 0, i32 1
  %39 = load i32, ptr %38, align 8, !tbaa !31
  %40 = icmp ne i32 %39, 57
  br i1 %40, label %41, label %72

41:                                               ; preds = %36
  %42 = load ptr, ptr %4, align 8, !tbaa !21
  %43 = getelementptr inbounds nuw %struct.internal_state, ptr %42, i32 0, i32 1
  %44 = load i32, ptr %43, align 8, !tbaa !31
  %45 = icmp ne i32 %44, 69
  br i1 %45, label %46, label %72

46:                                               ; preds = %41
  %47 = load ptr, ptr %4, align 8, !tbaa !21
  %48 = getelementptr inbounds nuw %struct.internal_state, ptr %47, i32 0, i32 1
  %49 = load i32, ptr %48, align 8, !tbaa !31
  %50 = icmp ne i32 %49, 73
  br i1 %50, label %51, label %72

51:                                               ; preds = %46
  %52 = load ptr, ptr %4, align 8, !tbaa !21
  %53 = getelementptr inbounds nuw %struct.internal_state, ptr %52, i32 0, i32 1
  %54 = load i32, ptr %53, align 8, !tbaa !31
  %55 = icmp ne i32 %54, 91
  br i1 %55, label %56, label %72

56:                                               ; preds = %51
  %57 = load ptr, ptr %4, align 8, !tbaa !21
  %58 = getelementptr inbounds nuw %struct.internal_state, ptr %57, i32 0, i32 1
  %59 = load i32, ptr %58, align 8, !tbaa !31
  %60 = icmp ne i32 %59, 103
  br i1 %60, label %61, label %72

61:                                               ; preds = %56
  %62 = load ptr, ptr %4, align 8, !tbaa !21
  %63 = getelementptr inbounds nuw %struct.internal_state, ptr %62, i32 0, i32 1
  %64 = load i32, ptr %63, align 8, !tbaa !31
  %65 = icmp ne i32 %64, 113
  br i1 %65, label %66, label %72

66:                                               ; preds = %61
  %67 = load ptr, ptr %4, align 8, !tbaa !21
  %68 = getelementptr inbounds nuw %struct.internal_state, ptr %67, i32 0, i32 1
  %69 = load i32, ptr %68, align 8, !tbaa !31
  %70 = icmp ne i32 %69, 666
  br i1 %70, label %71, label %72

71:                                               ; preds = %66, %25, %19
  store i32 1, ptr %2, align 4
  store i32 1, ptr %5, align 4
  br label %73

72:                                               ; preds = %66, %61, %56, %51, %46, %41, %36, %31
  store i32 0, ptr %2, align 4
  store i32 1, ptr %5, align 4
  br label %73

73:                                               ; preds = %72, %71, %18
  call void @llvm.lifetime.end.p0(i64 8, ptr %4) #5
  %74 = load i32, ptr %2, align 4
  ret i32 %74
}

; Function Attrs: nounwind uwtable
define dso_local i32 @cm_zlib_deflateGetDictionary(ptr noundef %0, ptr noundef %1, ptr noundef %2) #0 {
  %4 = alloca i32, align 4
  %5 = alloca ptr, align 8
  %6 = alloca ptr, align 8
  %7 = alloca ptr, align 8
  %8 = alloca ptr, align 8
  %9 = alloca i32, align 4
  %10 = alloca i32, align 4
  store ptr %0, ptr %5, align 8, !tbaa !4
  store ptr %1, ptr %6, align 8, !tbaa !11
  store ptr %2, ptr %7, align 8, !tbaa !73
  call void @llvm.lifetime.start.p0(i64 8, ptr %8) #5
  call void @llvm.lifetime.start.p0(i64 4, ptr %9) #5
  %11 = load ptr, ptr %5, align 8, !tbaa !4
  %12 = call i32 @deflateStateCheck(ptr noundef %11)
  %13 = icmp ne i32 %12, 0
  br i1 %13, label %14, label %15

14:                                               ; preds = %3
  store i32 -2, ptr %4, align 4
  store i32 1, ptr %10, align 4
  br label %69

15:                                               ; preds = %3
  %16 = load ptr, ptr %5, align 8, !tbaa !4
  %17 = getelementptr inbounds nuw %struct.z_stream_s, ptr %16, i32 0, i32 7
  %18 = load ptr, ptr %17, align 8, !tbaa !22
  store ptr %18, ptr %8, align 8, !tbaa !21
  %19 = load ptr, ptr %8, align 8, !tbaa !21
  %20 = getelementptr inbounds nuw %struct.internal_state, ptr %19, i32 0, i32 27
  %21 = load i32, ptr %20, align 4, !tbaa !56
  %22 = load ptr, ptr %8, align 8, !tbaa !21
  %23 = getelementptr inbounds nuw %struct.internal_state, ptr %22, i32 0, i32 29
  %24 = load i32, ptr %23, align 4, !tbaa !53
  %25 = add i32 %21, %24
  store i32 %25, ptr %9, align 4, !tbaa !9
  %26 = load i32, ptr %9, align 4, !tbaa !9
  %27 = load ptr, ptr %8, align 8, !tbaa !21
  %28 = getelementptr inbounds nuw %struct.internal_state, ptr %27, i32 0, i32 11
  %29 = load i32, ptr %28, align 8, !tbaa !35
  %30 = icmp ugt i32 %26, %29
  br i1 %30, label %31, label %35

31:                                               ; preds = %15
  %32 = load ptr, ptr %8, align 8, !tbaa !21
  %33 = getelementptr inbounds nuw %struct.internal_state, ptr %32, i32 0, i32 11
  %34 = load i32, ptr %33, align 8, !tbaa !35
  store i32 %34, ptr %9, align 4, !tbaa !9
  br label %35

35:                                               ; preds = %31, %15
  %36 = load ptr, ptr %6, align 8, !tbaa !11
  %37 = icmp ne ptr %36, null
  br i1 %37, label %38, label %62

38:                                               ; preds = %35
  %39 = load i32, ptr %9, align 4, !tbaa !9
  %40 = icmp ne i32 %39, 0
  br i1 %40, label %41, label %62

41:                                               ; preds = %38
  %42 = load ptr, ptr %6, align 8, !tbaa !11
  %43 = load ptr, ptr %8, align 8, !tbaa !21
  %44 = getelementptr inbounds nuw %struct.internal_state, ptr %43, i32 0, i32 14
  %45 = load ptr, ptr %44, align 8, !tbaa !41
  %46 = load ptr, ptr %8, align 8, !tbaa !21
  %47 = getelementptr inbounds nuw %struct.internal_state, ptr %46, i32 0, i32 27
  %48 = load i32, ptr %47, align 4, !tbaa !56
  %49 = zext i32 %48 to i64
  %50 = getelementptr inbounds nuw i8, ptr %45, i64 %49
  %51 = load ptr, ptr %8, align 8, !tbaa !21
  %52 = getelementptr inbounds nuw %struct.internal_state, ptr %51, i32 0, i32 29
  %53 = load i32, ptr %52, align 4, !tbaa !53
  %54 = zext i32 %53 to i64
  %55 = getelementptr inbounds nuw i8, ptr %50, i64 %54
  %56 = load i32, ptr %9, align 4, !tbaa !9
  %57 = zext i32 %56 to i64
  %58 = sub i64 0, %57
  %59 = getelementptr inbounds i8, ptr %55, i64 %58
  %60 = load i32, ptr %9, align 4, !tbaa !9
  %61 = zext i32 %60 to i64
  call void @llvm.memcpy.p0.p0.i64(ptr align 1 %42, ptr align 1 %59, i64 %61, i1 false)
  br label %62

62:                                               ; preds = %41, %38, %35
  %63 = load ptr, ptr %7, align 8, !tbaa !73
  %64 = icmp ne ptr %63, null
  br i1 %64, label %65, label %68

65:                                               ; preds = %62
  %66 = load i32, ptr %9, align 4, !tbaa !9
  %67 = load ptr, ptr %7, align 8, !tbaa !73
  store i32 %66, ptr %67, align 4, !tbaa !9
  br label %68

68:                                               ; preds = %65, %62
  store i32 0, ptr %4, align 4
  store i32 1, ptr %10, align 4
  br label %69

69:                                               ; preds = %68, %14
  call void @llvm.lifetime.end.p0(i64 4, ptr %9) #5
  call void @llvm.lifetime.end.p0(i64 8, ptr %8) #5
  %70 = load i32, ptr %4, align 4
  ret i32 %70
}